; Function Attrs: mustprogress uwtable
define hidden noundef zeroext i1 @_ZNK19OpenColorIO_v2_5dev22ExposureContrastOpData10isIdentityEv(ptr noundef nonnull readonly align 8 captures(none) dereferenceable(248) %0) unnamed_addr #0 align 2 {
  %2 = getelementptr inbounds nuw i8, ptr %0, i64 176
  %3 = load ptr, ptr %2, align 8, !tbaa !42
  %4 = getelementptr inbounds nuw i8, ptr %3, i64 12
  %5 = load i8, ptr %4, align 4, !tbaa !76, !range !81, !noundef !82
  %6 = trunc nuw i8 %5 to i1
  br i1 %6, label %_ZNK19OpenColorIO_v2_5dev22ExposureContrastOpData9isDynamicEv.exit.thread, label %7

7:                                                ; preds = %1
  %8 = getelementptr inbounds nuw i8, ptr %0, i64 192
  %9 = load ptr, ptr %8, align 8, !tbaa !42
  %10 = getelementptr inbounds nuw i8, ptr %9, i64 12
  %11 = load i8, ptr %10, align 4, !tbaa !76, !range !81, !noundef !82
  %12 = trunc nuw i8 %11 to i1
  br i1 %12, label %_ZNK19OpenColorIO_v2_5dev22ExposureContrastOpData9isDynamicEv.exit.thread, label %_ZNK19OpenColorIO_v2_5dev22ExposureContrastOpData9isDynamicEv.exit

_ZNK19OpenColorIO_v2_5dev22ExposureContrastOpData9isDynamicEv.exit: ; preds = %7
  %13 = getelementptr inbounds nuw i8, ptr %0, i64 208
  %14 = load ptr, ptr %13, align 8, !tbaa !42
  %15 = getelementptr inbounds nuw i8, ptr %14, i64 12
  %16 = load i8, ptr %15, align 4, !tbaa !76, !range !81, !noundef !82
  %17 = trunc nuw i8 %16 to i1
  br i1 %17, label %_ZNK19OpenColorIO_v2_5dev22ExposureContrastOpData9isDynamicEv.exit.thread, label %18

18:                                               ; preds = %_ZNK19OpenColorIO_v2_5dev22ExposureContrastOpData9isDynamicEv.exit
  %19 = load ptr, ptr %3, align 8, !tbaa !13
  %20 = getelementptr inbounds nuw i8, ptr %19, i64 24
  %21 = load ptr, ptr %20, align 8
  %22 = tail call noundef double %21(ptr noundef nonnull align 8 dereferenceable(32) %3)
  %23 = fcmp oeq double %22, 0.000000e+00
  br i1 %23, label %24, label %_ZNK19OpenColorIO_v2_5dev22ExposureContrastOpData9isDynamicEv.exit.thread

24:                                               ; preds = %18
  %25 = load ptr, ptr %8, align 8, !tbaa !42
  %26 = load ptr, ptr %25, align 8, !tbaa !13
  %27 = getelementptr inbounds nuw i8, ptr %26, i64 24
  %28 = load ptr, ptr %27, align 8
  %29 = tail call noundef double %28(ptr noundef nonnull align 8 dereferenceable(32) %25)
  %30 = fcmp oeq double %29, 1.000000e+00
  br i1 %30, label %31, label %_ZNK19OpenColorIO_v2_5dev22ExposureContrastOpData9isDynamicEv.exit.thread

31:                                               ; preds = %24
  %32 = load ptr, ptr %13, align 8, !tbaa !42
  %33 = load ptr, ptr %32, align 8, !tbaa !13
  %34 = getelementptr inbounds nuw i8, ptr %33, i64 24
  %35 = load ptr, ptr %34, align 8
  %36 = tail call noundef double %35(ptr noundef nonnull align 8 dereferenceable(32) %32)
  %37 = fcmp oeq double %36, 1.000000e+00
  br label %_ZNK19OpenColorIO_v2_5dev22ExposureContrastOpData9isDynamicEv.exit.thread

_ZNK19OpenColorIO_v2_5dev22ExposureContrastOpData9isDynamicEv.exit.thread: ; preds = %1, %7, %31, %24, %18, %_ZNK19OpenColorIO_v2_5dev22ExposureContrastOpData9isDynamicEv.exit
  %38 = phi i1 [ false, %24 ], [ false, %18 ], [ false, %_ZNK19OpenColorIO_v2_5dev22ExposureContrastOpData9isDynamicEv.exit ], [ %37, %31 ], [ false, %7 ], [ false, %1 ]
  ret i1 %38
}